; Function Attrs: mustprogress nofree norecurse nosync nounwind willreturn memory(none) uwtable
define hidden noundef nonnull ptr @_ZN7Compile17probe_alias_cacheEPK7TypePtr(ptr noundef nonnull readnone align 8 dereferenceable(2316) %0, ptr noundef %1) local_unnamed_addr #4 align 2 {
  %3 = ptrtoint ptr %1 to i64
  %4 = lshr i64 %3, 6
  %5 = xor i64 %4, %3
  %6 = getelementptr inbounds i8, ptr %0, i64 928
  %7 = and i64 %5, 63
  %8 = getelementptr inbounds [64 x %"struct.Compile::AliasCacheEntry"], ptr %6, i64 0, i64 %7
  ret ptr %8
}